ARM GAS  /tmp/ccSbulXh.s 			page 1


   1              		.cpu cortex-m4
   2              		.arch armv7e-m
   3              		.fpu fpv4-sp-d16
   4              		.eabi_attribute 27, 1
   5              		.eabi_attribute 28, 1
   6              		.eabi_attribute 20, 1
   7              		.eabi_attribute 21, 1
   8              		.eabi_attribute 23, 3
   9              		.eabi_attribute 24, 1
  10              		.eabi_attribute 25, 1
  11              		.eabi_attribute 26, 1
  12              		.eabi_attribute 30, 1
  13              		.eabi_attribute 34, 1
  14              		.eabi_attribute 18, 4
  15              		.file	"main.c"
  16              		.text
  17              	.Ltext0:
  18              		.cfi_sections	.debug_frame
  19              		.file 1 "Core/Src/main.c"
  20              		.section	.text.StartDefaultTask,"ax",%progbits
  21              		.align	1
  22              		.global	StartDefaultTask
  23              		.syntax unified
  24              		.thumb
  25              		.thumb_func
  27              	StartDefaultTask:
  28              	.LFB234:
   1:Core/Src/main.c **** /* USER CODE BEGIN Header */
   2:Core/Src/main.c **** /**
   3:Core/Src/main.c ****   ******************************************************************************
   4:Core/Src/main.c ****   * @file           : main.c
   5:Core/Src/main.c ****   * @brief          : Main program body
   6:Core/Src/main.c ****   ******************************************************************************
   7:Core/Src/main.c ****   * @attention
   8:Core/Src/main.c ****   *
   9:Core/Src/main.c ****   * Copyright (c) 2026 STMicroelectronics.
  10:Core/Src/main.c ****   * All rights reserved.
  11:Core/Src/main.c ****   *
  12:Core/Src/main.c ****   * This software is licensed under terms that can be found in the LICENSE file
  13:Core/Src/main.c ****   * in the root directory of this software component.
  14:Core/Src/main.c ****   * If no LICENSE file comes with this software, it is provided AS-IS.
  15:Core/Src/main.c ****   *
  16:Core/Src/main.c ****   ******************************************************************************
  17:Core/Src/main.c ****   */
  18:Core/Src/main.c **** /* USER CODE END Header */
  19:Core/Src/main.c **** /* Includes ------------------------------------------------------------------*/
  20:Core/Src/main.c **** #include "main.h"
  21:Core/Src/main.c **** #include "cmsis_os.h"
  22:Core/Src/main.c **** 
  23:Core/Src/main.c **** /* Private includes ----------------------------------------------------------*/
  24:Core/Src/main.c **** /* USER CODE BEGIN Includes */
  25:Core/Src/main.c **** 
  26:Core/Src/main.c **** /* USER CODE END Includes */
  27:Core/Src/main.c **** 
  28:Core/Src/main.c **** /* Private typedef -----------------------------------------------------------*/
  29:Core/Src/main.c **** /* USER CODE BEGIN PTD */
  30:Core/Src/main.c **** 
ARM GAS  /tmp/ccSbulXh.s 			page 2


  31:Core/Src/main.c **** /* USER CODE END PTD */
  32:Core/Src/main.c **** 
  33:Core/Src/main.c **** /* Private define ------------------------------------------------------------*/
  34:Core/Src/main.c **** /* USER CODE BEGIN PD */
  35:Core/Src/main.c **** 
  36:Core/Src/main.c **** /* USER CODE END PD */
  37:Core/Src/main.c **** 
  38:Core/Src/main.c **** /* Private macro -------------------------------------------------------------*/
  39:Core/Src/main.c **** /* USER CODE BEGIN PM */
  40:Core/Src/main.c **** 
  41:Core/Src/main.c **** /* USER CODE END PM */
  42:Core/Src/main.c **** 
  43:Core/Src/main.c **** /* Private variables ---------------------------------------------------------*/
  44:Core/Src/main.c **** /* Definitions for defaultTask */
  45:Core/Src/main.c **** osThreadId_t defaultTaskHandle;
  46:Core/Src/main.c **** const osThreadAttr_t defaultTask_attributes = {
  47:Core/Src/main.c ****   .name = "defaultTask",
  48:Core/Src/main.c ****   .stack_size = 128 * 4,
  49:Core/Src/main.c ****   .priority = (osPriority_t) osPriorityNormal,
  50:Core/Src/main.c **** };
  51:Core/Src/main.c **** /* USER CODE BEGIN PV */
  52:Core/Src/main.c **** 
  53:Core/Src/main.c **** /* USER CODE END PV */
  54:Core/Src/main.c **** 
  55:Core/Src/main.c **** /* Private function prototypes -----------------------------------------------*/
  56:Core/Src/main.c **** void SystemClock_Config(void);
  57:Core/Src/main.c **** void StartDefaultTask(void *argument);
  58:Core/Src/main.c **** 
  59:Core/Src/main.c **** /* USER CODE BEGIN PFP */
  60:Core/Src/main.c **** 
  61:Core/Src/main.c **** /* USER CODE END PFP */
  62:Core/Src/main.c **** 
  63:Core/Src/main.c **** /* Private user code ---------------------------------------------------------*/
  64:Core/Src/main.c **** /* USER CODE BEGIN 0 */
  65:Core/Src/main.c **** 
  66:Core/Src/main.c **** /* USER CODE END 0 */
  67:Core/Src/main.c **** 
  68:Core/Src/main.c **** /**
  69:Core/Src/main.c ****   * @brief  The application entry point.
  70:Core/Src/main.c ****   * @retval int
  71:Core/Src/main.c ****   */
  72:Core/Src/main.c **** int main(void)
  73:Core/Src/main.c **** {
  74:Core/Src/main.c **** 
  75:Core/Src/main.c ****   /* USER CODE BEGIN 1 */
  76:Core/Src/main.c **** 
  77:Core/Src/main.c ****   /* USER CODE END 1 */
  78:Core/Src/main.c **** 
  79:Core/Src/main.c ****   /* MCU Configuration--------------------------------------------------------*/
  80:Core/Src/main.c **** 
  81:Core/Src/main.c ****   /* Reset of all peripherals, Initializes the Flash interface and the Systick. */
  82:Core/Src/main.c ****   HAL_Init();
  83:Core/Src/main.c **** 
  84:Core/Src/main.c ****   /* USER CODE BEGIN Init */
  85:Core/Src/main.c **** 
  86:Core/Src/main.c ****   /* USER CODE END Init */
  87:Core/Src/main.c **** 
ARM GAS  /tmp/ccSbulXh.s 			page 3


  88:Core/Src/main.c ****   /* Configure the system clock */
  89:Core/Src/main.c ****   SystemClock_Config();
  90:Core/Src/main.c **** 
  91:Core/Src/main.c ****   /* USER CODE BEGIN SysInit */
  92:Core/Src/main.c **** 
  93:Core/Src/main.c ****   /* USER CODE END SysInit */
  94:Core/Src/main.c **** 
  95:Core/Src/main.c ****   /* Initialize all configured peripherals */
  96:Core/Src/main.c ****   /* USER CODE BEGIN 2 */
  97:Core/Src/main.c **** 
  98:Core/Src/main.c ****   /* USER CODE END 2 */
  99:Core/Src/main.c **** 
 100:Core/Src/main.c ****   /* Init scheduler */
 101:Core/Src/main.c ****   osKernelInitialize();
 102:Core/Src/main.c **** 
 103:Core/Src/main.c ****   /* USER CODE BEGIN RTOS_MUTEX */
 104:Core/Src/main.c ****   /* add mutexes, ... */
 105:Core/Src/main.c ****   /* USER CODE END RTOS_MUTEX */
 106:Core/Src/main.c **** 
 107:Core/Src/main.c ****   /* USER CODE BEGIN RTOS_SEMAPHORES */
 108:Core/Src/main.c ****   /* add semaphores, ... */
 109:Core/Src/main.c ****   /* USER CODE END RTOS_SEMAPHORES */
 110:Core/Src/main.c **** 
 111:Core/Src/main.c ****   /* USER CODE BEGIN RTOS_TIMERS */
 112:Core/Src/main.c ****   /* start timers, add new ones, ... */
 113:Core/Src/main.c ****   /* USER CODE END RTOS_TIMERS */
 114:Core/Src/main.c **** 
 115:Core/Src/main.c ****   /* USER CODE BEGIN RTOS_QUEUES */
 116:Core/Src/main.c ****   /* add queues, ... */
 117:Core/Src/main.c ****   /* USER CODE END RTOS_QUEUES */
 118:Core/Src/main.c **** 
 119:Core/Src/main.c ****   /* Create the thread(s) */
 120:Core/Src/main.c ****   /* creation of defaultTask */
 121:Core/Src/main.c ****   defaultTaskHandle = osThreadNew(StartDefaultTask, NULL, &defaultTask_attributes);
 122:Core/Src/main.c **** 
 123:Core/Src/main.c ****   /* USER CODE BEGIN RTOS_THREADS */
 124:Core/Src/main.c ****   /* add threads, ... */
 125:Core/Src/main.c ****   /* USER CODE END RTOS_THREADS */
 126:Core/Src/main.c **** 
 127:Core/Src/main.c ****   /* USER CODE BEGIN RTOS_EVENTS */
 128:Core/Src/main.c ****   /* add events, ... */
 129:Core/Src/main.c ****   /* USER CODE END RTOS_EVENTS */
 130:Core/Src/main.c **** 
 131:Core/Src/main.c ****   /* Start scheduler */
 132:Core/Src/main.c ****   osKernelStart();
 133:Core/Src/main.c **** 
 134:Core/Src/main.c ****   /* We should never get here as control is now taken by the scheduler */
 135:Core/Src/main.c **** 
 136:Core/Src/main.c ****   /* Infinite loop */
 137:Core/Src/main.c ****   /* USER CODE BEGIN WHILE */
 138:Core/Src/main.c ****   while (1)
 139:Core/Src/main.c ****   {
 140:Core/Src/main.c ****     /* USER CODE END WHILE */
 141:Core/Src/main.c **** 
 142:Core/Src/main.c ****     /* USER CODE BEGIN 3 */
 143:Core/Src/main.c ****   }
 144:Core/Src/main.c ****   /* USER CODE END 3 */
ARM GAS  /tmp/ccSbulXh.s 			page 4


 145:Core/Src/main.c **** }
 146:Core/Src/main.c **** 
 147:Core/Src/main.c **** /**
 148:Core/Src/main.c ****   * @brief System Clock Configuration
 149:Core/Src/main.c ****   * @retval None
 150:Core/Src/main.c ****   */
 151:Core/Src/main.c **** void SystemClock_Config(void)
 152:Core/Src/main.c **** {
 153:Core/Src/main.c ****   RCC_OscInitTypeDef RCC_OscInitStruct = {0};
 154:Core/Src/main.c ****   RCC_ClkInitTypeDef RCC_ClkInitStruct = {0};
 155:Core/Src/main.c **** 
 156:Core/Src/main.c ****   /** Configure the main internal regulator output voltage
 157:Core/Src/main.c ****   */
 158:Core/Src/main.c ****   if (HAL_PWREx_ControlVoltageScaling(PWR_REGULATOR_VOLTAGE_SCALE1) != HAL_OK)
 159:Core/Src/main.c ****   {
 160:Core/Src/main.c ****     Error_Handler();
 161:Core/Src/main.c ****   }
 162:Core/Src/main.c **** 
 163:Core/Src/main.c ****   /** Initializes the RCC Oscillators according to the specified parameters
 164:Core/Src/main.c ****   * in the RCC_OscInitTypeDef structure.
 165:Core/Src/main.c ****   */
 166:Core/Src/main.c ****   RCC_OscInitStruct.OscillatorType = RCC_OSCILLATORTYPE_MSI;
 167:Core/Src/main.c ****   RCC_OscInitStruct.MSIState = RCC_MSI_ON;
 168:Core/Src/main.c ****   RCC_OscInitStruct.MSICalibrationValue = 0;
 169:Core/Src/main.c ****   RCC_OscInitStruct.MSIClockRange = RCC_MSIRANGE_6;
 170:Core/Src/main.c ****   RCC_OscInitStruct.PLL.PLLState = RCC_PLL_NONE;
 171:Core/Src/main.c ****   if (HAL_RCC_OscConfig(&RCC_OscInitStruct) != HAL_OK)
 172:Core/Src/main.c ****   {
 173:Core/Src/main.c ****     Error_Handler();
 174:Core/Src/main.c ****   }
 175:Core/Src/main.c **** 
 176:Core/Src/main.c ****   /** Initializes the CPU, AHB and APB buses clocks
 177:Core/Src/main.c ****   */
 178:Core/Src/main.c ****   RCC_ClkInitStruct.ClockType = RCC_CLOCKTYPE_HCLK|RCC_CLOCKTYPE_SYSCLK
 179:Core/Src/main.c ****                               |RCC_CLOCKTYPE_PCLK1|RCC_CLOCKTYPE_PCLK2;
 180:Core/Src/main.c ****   RCC_ClkInitStruct.SYSCLKSource = RCC_SYSCLKSOURCE_MSI;
 181:Core/Src/main.c ****   RCC_ClkInitStruct.AHBCLKDivider = RCC_SYSCLK_DIV1;
 182:Core/Src/main.c ****   RCC_ClkInitStruct.APB1CLKDivider = RCC_HCLK_DIV1;
 183:Core/Src/main.c ****   RCC_ClkInitStruct.APB2CLKDivider = RCC_HCLK_DIV1;
 184:Core/Src/main.c **** 
 185:Core/Src/main.c ****   if (HAL_RCC_ClockConfig(&RCC_ClkInitStruct, FLASH_LATENCY_0) != HAL_OK)
 186:Core/Src/main.c ****   {
 187:Core/Src/main.c ****     Error_Handler();
 188:Core/Src/main.c ****   }
 189:Core/Src/main.c **** }
 190:Core/Src/main.c **** 
 191:Core/Src/main.c **** /* USER CODE BEGIN 4 */
 192:Core/Src/main.c **** 
 193:Core/Src/main.c **** /* USER CODE END 4 */
 194:Core/Src/main.c **** 
 195:Core/Src/main.c **** /* USER CODE BEGIN Header_StartDefaultTask */
 196:Core/Src/main.c **** /**
 197:Core/Src/main.c ****   * @brief  Function implementing the defaultTask thread.
 198:Core/Src/main.c ****   * @param  argument: Not used
 199:Core/Src/main.c ****   * @retval None
 200:Core/Src/main.c ****   */
 201:Core/Src/main.c **** /* USER CODE END Header_StartDefaultTask */
ARM GAS  /tmp/ccSbulXh.s 			page 5


 202:Core/Src/main.c **** void StartDefaultTask(void *argument)
 203:Core/Src/main.c **** {
  29              		.loc 1 203 1 view -0
  30              		.cfi_startproc
  31              		@ Volatile: function does not return.
  32              		@ args = 0, pretend = 0, frame = 0
  33              		@ frame_needed = 0, uses_anonymous_args = 0
  34              	.LVL0:
  35              		.loc 1 203 1 is_stmt 0 view .LVU1
  36 0000 08B5     		push	{r3, lr}
  37              	.LCFI0:
  38              		.cfi_def_cfa_offset 8
  39              		.cfi_offset 3, -8
  40              		.cfi_offset 14, -4
  41              	.LVL1:
  42              	.L2:
 204:Core/Src/main.c ****   /* USER CODE BEGIN 5 */
 205:Core/Src/main.c ****   /* Infinite loop */
 206:Core/Src/main.c ****   for(;;)
  43              		.loc 1 206 3 is_stmt 1 view .LVU2
 207:Core/Src/main.c ****   {
 208:Core/Src/main.c ****     osDelay(1);
  44              		.loc 1 208 5 discriminator 2 view .LVU3
  45 0002 0120     		movs	r0, #1
  46 0004 FFF7FEFF 		bl	osDelay
  47              	.LVL2:
 206:Core/Src/main.c ****   {
  48              		.loc 1 206 3 view .LVU4
  49 0008 FBE7     		b	.L2
  50              		.cfi_endproc
  51              	.LFE234:
  53              		.section	.text.HAL_TIM_PeriodElapsedCallback,"ax",%progbits
  54              		.align	1
  55              		.global	HAL_TIM_PeriodElapsedCallback
  56              		.syntax unified
  57              		.thumb
  58              		.thumb_func
  60              	HAL_TIM_PeriodElapsedCallback:
  61              	.LVL3:
  62              	.LFB235:
 209:Core/Src/main.c ****   }
 210:Core/Src/main.c ****   /* USER CODE END 5 */
 211:Core/Src/main.c **** }
 212:Core/Src/main.c **** 
 213:Core/Src/main.c **** /**
 214:Core/Src/main.c ****   * @brief  Period elapsed callback in non blocking mode
 215:Core/Src/main.c ****   * @note   This function is called  when TIM6 interrupt took place, inside
 216:Core/Src/main.c ****   * HAL_TIM_IRQHandler(). It makes a direct call to HAL_IncTick() to increment
 217:Core/Src/main.c ****   * a global variable "uwTick" used as application time base.
 218:Core/Src/main.c ****   * @param  htim : TIM handle
 219:Core/Src/main.c ****   * @retval None
 220:Core/Src/main.c ****   */
 221:Core/Src/main.c **** void HAL_TIM_PeriodElapsedCallback(TIM_HandleTypeDef *htim)
 222:Core/Src/main.c **** {
  63              		.loc 1 222 1 view -0
  64              		.cfi_startproc
  65              		@ args = 0, pretend = 0, frame = 0
ARM GAS  /tmp/ccSbulXh.s 			page 6


  66              		@ frame_needed = 0, uses_anonymous_args = 0
  67              		.loc 1 222 1 is_stmt 0 view .LVU6
  68 0000 08B5     		push	{r3, lr}
  69              	.LCFI1:
  70              		.cfi_def_cfa_offset 8
  71              		.cfi_offset 3, -8
  72              		.cfi_offset 14, -4
 223:Core/Src/main.c ****   /* USER CODE BEGIN Callback 0 */
 224:Core/Src/main.c **** 
 225:Core/Src/main.c ****   /* USER CODE END Callback 0 */
 226:Core/Src/main.c ****   if (htim->Instance == TIM6)
  73              		.loc 1 226 3 is_stmt 1 view .LVU7
  74              		.loc 1 226 11 is_stmt 0 view .LVU8
  75 0002 0268     		ldr	r2, [r0]
  76              		.loc 1 226 6 view .LVU9
  77 0004 034B     		ldr	r3, .L8
  78 0006 9A42     		cmp	r2, r3
  79 0008 00D0     		beq	.L7
  80              	.LVL4:
  81              	.L4:
 227:Core/Src/main.c ****   {
 228:Core/Src/main.c ****     HAL_IncTick();
 229:Core/Src/main.c ****   }
 230:Core/Src/main.c ****   /* USER CODE BEGIN Callback 1 */
 231:Core/Src/main.c **** 
 232:Core/Src/main.c ****   /* USER CODE END Callback 1 */
 233:Core/Src/main.c **** }
  82              		.loc 1 233 1 view .LVU10
  83 000a 08BD     		pop	{r3, pc}
  84              	.LVL5:
  85              	.L7:
 228:Core/Src/main.c ****   }
  86              		.loc 1 228 5 is_stmt 1 view .LVU11
  87 000c FFF7FEFF 		bl	HAL_IncTick
  88              	.LVL6:
  89              		.loc 1 233 1 is_stmt 0 view .LVU12
  90 0010 FBE7     		b	.L4
  91              	.L9:
  92 0012 00BF     		.align	2
  93              	.L8:
  94 0014 00100040 		.word	1073745920
  95              		.cfi_endproc
  96              	.LFE235:
  98              		.section	.text.Error_Handler,"ax",%progbits
  99              		.align	1
 100              		.global	Error_Handler
 101              		.syntax unified
 102              		.thumb
 103              		.thumb_func
 105              	Error_Handler:
 106              	.LFB236:
 234:Core/Src/main.c **** 
 235:Core/Src/main.c **** /**
 236:Core/Src/main.c ****   * @brief  This function is executed in case of error occurrence.
 237:Core/Src/main.c ****   * @retval None
 238:Core/Src/main.c ****   */
 239:Core/Src/main.c **** void Error_Handler(void)
ARM GAS  /tmp/ccSbulXh.s 			page 7


 240:Core/Src/main.c **** {
 107              		.loc 1 240 1 is_stmt 1 view -0
 108              		.cfi_startproc
 109              		@ Volatile: function does not return.
 110              		@ args = 0, pretend = 0, frame = 0
 111              		@ frame_needed = 0, uses_anonymous_args = 0
 112              		@ link register save eliminated.
 241:Core/Src/main.c ****   /* USER CODE BEGIN Error_Handler_Debug */
 242:Core/Src/main.c ****   /* User can add his own implementation to report the HAL error return state */
 243:Core/Src/main.c ****   __disable_irq();
 113              		.loc 1 243 3 view .LVU14
 114              	.LBB4:
 115              	.LBI4:
 116              		.file 2 "Drivers/CMSIS/Include/cmsis_gcc.h"
   1:Drivers/CMSIS/Include/cmsis_gcc.h **** /**************************************************************************//**
   2:Drivers/CMSIS/Include/cmsis_gcc.h ****  * @file     cmsis_gcc.h
   3:Drivers/CMSIS/Include/cmsis_gcc.h ****  * @brief    CMSIS compiler GCC header file
   4:Drivers/CMSIS/Include/cmsis_gcc.h ****  * @version  V5.2.0
   5:Drivers/CMSIS/Include/cmsis_gcc.h ****  * @date     08. May 2019
   6:Drivers/CMSIS/Include/cmsis_gcc.h ****  ******************************************************************************/
   7:Drivers/CMSIS/Include/cmsis_gcc.h **** /*
   8:Drivers/CMSIS/Include/cmsis_gcc.h ****  * Copyright (c) 2009-2019 Arm Limited. All rights reserved.
   9:Drivers/CMSIS/Include/cmsis_gcc.h ****  *
  10:Drivers/CMSIS/Include/cmsis_gcc.h ****  * SPDX-License-Identifier: Apache-2.0
  11:Drivers/CMSIS/Include/cmsis_gcc.h ****  *
  12:Drivers/CMSIS/Include/cmsis_gcc.h ****  * Licensed under the Apache License, Version 2.0 (the License); you may
  13:Drivers/CMSIS/Include/cmsis_gcc.h ****  * not use this file except in compliance with the License.
  14:Drivers/CMSIS/Include/cmsis_gcc.h ****  * You may obtain a copy of the License at
  15:Drivers/CMSIS/Include/cmsis_gcc.h ****  *
  16:Drivers/CMSIS/Include/cmsis_gcc.h ****  * www.apache.org/licenses/LICENSE-2.0
  17:Drivers/CMSIS/Include/cmsis_gcc.h ****  *
  18:Drivers/CMSIS/Include/cmsis_gcc.h ****  * Unless required by applicable law or agreed to in writing, software
  19:Drivers/CMSIS/Include/cmsis_gcc.h ****  * distributed under the License is distributed on an AS IS BASIS, WITHOUT
  20:Drivers/CMSIS/Include/cmsis_gcc.h ****  * WARRANTIES OR CONDITIONS OF ANY KIND, either express or implied.
  21:Drivers/CMSIS/Include/cmsis_gcc.h ****  * See the License for the specific language governing permissions and
  22:Drivers/CMSIS/Include/cmsis_gcc.h ****  * limitations under the License.
  23:Drivers/CMSIS/Include/cmsis_gcc.h ****  */
  24:Drivers/CMSIS/Include/cmsis_gcc.h **** 
  25:Drivers/CMSIS/Include/cmsis_gcc.h **** #ifndef __CMSIS_GCC_H
  26:Drivers/CMSIS/Include/cmsis_gcc.h **** #define __CMSIS_GCC_H
  27:Drivers/CMSIS/Include/cmsis_gcc.h **** 
  28:Drivers/CMSIS/Include/cmsis_gcc.h **** /* ignore some GCC warnings */
  29:Drivers/CMSIS/Include/cmsis_gcc.h **** #pragma GCC diagnostic push
  30:Drivers/CMSIS/Include/cmsis_gcc.h **** #pragma GCC diagnostic ignored "-Wsign-conversion"
  31:Drivers/CMSIS/Include/cmsis_gcc.h **** #pragma GCC diagnostic ignored "-Wconversion"
  32:Drivers/CMSIS/Include/cmsis_gcc.h **** #pragma GCC diagnostic ignored "-Wunused-parameter"
  33:Drivers/CMSIS/Include/cmsis_gcc.h **** 
  34:Drivers/CMSIS/Include/cmsis_gcc.h **** /* Fallback for __has_builtin */
  35:Drivers/CMSIS/Include/cmsis_gcc.h **** #ifndef __has_builtin
  36:Drivers/CMSIS/Include/cmsis_gcc.h ****   #define __has_builtin(x) (0)
  37:Drivers/CMSIS/Include/cmsis_gcc.h **** #endif
  38:Drivers/CMSIS/Include/cmsis_gcc.h **** 
  39:Drivers/CMSIS/Include/cmsis_gcc.h **** /* CMSIS compiler specific defines */
  40:Drivers/CMSIS/Include/cmsis_gcc.h **** #ifndef   __ASM
  41:Drivers/CMSIS/Include/cmsis_gcc.h ****   #define __ASM                                  __asm
  42:Drivers/CMSIS/Include/cmsis_gcc.h **** #endif
  43:Drivers/CMSIS/Include/cmsis_gcc.h **** #ifndef   __INLINE
ARM GAS  /tmp/ccSbulXh.s 			page 8


  44:Drivers/CMSIS/Include/cmsis_gcc.h ****   #define __INLINE                               inline
  45:Drivers/CMSIS/Include/cmsis_gcc.h **** #endif
  46:Drivers/CMSIS/Include/cmsis_gcc.h **** #ifndef   __STATIC_INLINE
  47:Drivers/CMSIS/Include/cmsis_gcc.h ****   #define __STATIC_INLINE                        static inline
  48:Drivers/CMSIS/Include/cmsis_gcc.h **** #endif
  49:Drivers/CMSIS/Include/cmsis_gcc.h **** #ifndef   __STATIC_FORCEINLINE                 
  50:Drivers/CMSIS/Include/cmsis_gcc.h ****   #define __STATIC_FORCEINLINE                   __attribute__((always_inline)) static inline
  51:Drivers/CMSIS/Include/cmsis_gcc.h **** #endif                                           
  52:Drivers/CMSIS/Include/cmsis_gcc.h **** #ifndef   __NO_RETURN
  53:Drivers/CMSIS/Include/cmsis_gcc.h ****   #define __NO_RETURN                            __attribute__((__noreturn__))
  54:Drivers/CMSIS/Include/cmsis_gcc.h **** #endif
  55:Drivers/CMSIS/Include/cmsis_gcc.h **** #ifndef   __USED
  56:Drivers/CMSIS/Include/cmsis_gcc.h ****   #define __USED                                 __attribute__((used))
  57:Drivers/CMSIS/Include/cmsis_gcc.h **** #endif
  58:Drivers/CMSIS/Include/cmsis_gcc.h **** #ifndef   __WEAK
  59:Drivers/CMSIS/Include/cmsis_gcc.h ****   #define __WEAK                                 __attribute__((weak))
  60:Drivers/CMSIS/Include/cmsis_gcc.h **** #endif
  61:Drivers/CMSIS/Include/cmsis_gcc.h **** #ifndef   __PACKED
  62:Drivers/CMSIS/Include/cmsis_gcc.h ****   #define __PACKED                               __attribute__((packed, aligned(1)))
  63:Drivers/CMSIS/Include/cmsis_gcc.h **** #endif
  64:Drivers/CMSIS/Include/cmsis_gcc.h **** #ifndef   __PACKED_STRUCT
  65:Drivers/CMSIS/Include/cmsis_gcc.h ****   #define __PACKED_STRUCT                        struct __attribute__((packed, aligned(1)))
  66:Drivers/CMSIS/Include/cmsis_gcc.h **** #endif
  67:Drivers/CMSIS/Include/cmsis_gcc.h **** #ifndef   __PACKED_UNION
  68:Drivers/CMSIS/Include/cmsis_gcc.h ****   #define __PACKED_UNION                         union __attribute__((packed, aligned(1)))
  69:Drivers/CMSIS/Include/cmsis_gcc.h **** #endif
  70:Drivers/CMSIS/Include/cmsis_gcc.h **** #ifndef   __UNALIGNED_UINT32        /* deprecated */
  71:Drivers/CMSIS/Include/cmsis_gcc.h ****   #pragma GCC diagnostic push
  72:Drivers/CMSIS/Include/cmsis_gcc.h ****   #pragma GCC diagnostic ignored "-Wpacked"
  73:Drivers/CMSIS/Include/cmsis_gcc.h ****   #pragma GCC diagnostic ignored "-Wattributes"
  74:Drivers/CMSIS/Include/cmsis_gcc.h ****   struct __attribute__((packed)) T_UINT32 { uint32_t v; };
  75:Drivers/CMSIS/Include/cmsis_gcc.h ****   #pragma GCC diagnostic pop
  76:Drivers/CMSIS/Include/cmsis_gcc.h ****   #define __UNALIGNED_UINT32(x)                  (((struct T_UINT32 *)(x))->v)
  77:Drivers/CMSIS/Include/cmsis_gcc.h **** #endif
  78:Drivers/CMSIS/Include/cmsis_gcc.h **** #ifndef   __UNALIGNED_UINT16_WRITE
  79:Drivers/CMSIS/Include/cmsis_gcc.h ****   #pragma GCC diagnostic push
  80:Drivers/CMSIS/Include/cmsis_gcc.h ****   #pragma GCC diagnostic ignored "-Wpacked"
  81:Drivers/CMSIS/Include/cmsis_gcc.h ****   #pragma GCC diagnostic ignored "-Wattributes"
  82:Drivers/CMSIS/Include/cmsis_gcc.h ****   __PACKED_STRUCT T_UINT16_WRITE { uint16_t v; };
  83:Drivers/CMSIS/Include/cmsis_gcc.h ****   #pragma GCC diagnostic pop
  84:Drivers/CMSIS/Include/cmsis_gcc.h ****   #define __UNALIGNED_UINT16_WRITE(addr, val)    (void)((((struct T_UINT16_WRITE *)(void *)(addr))-
  85:Drivers/CMSIS/Include/cmsis_gcc.h **** #endif
  86:Drivers/CMSIS/Include/cmsis_gcc.h **** #ifndef   __UNALIGNED_UINT16_READ
  87:Drivers/CMSIS/Include/cmsis_gcc.h ****   #pragma GCC diagnostic push
  88:Drivers/CMSIS/Include/cmsis_gcc.h ****   #pragma GCC diagnostic ignored "-Wpacked"
  89:Drivers/CMSIS/Include/cmsis_gcc.h ****   #pragma GCC diagnostic ignored "-Wattributes"
  90:Drivers/CMSIS/Include/cmsis_gcc.h ****   __PACKED_STRUCT T_UINT16_READ { uint16_t v; };
  91:Drivers/CMSIS/Include/cmsis_gcc.h ****   #pragma GCC diagnostic pop
  92:Drivers/CMSIS/Include/cmsis_gcc.h ****   #define __UNALIGNED_UINT16_READ(addr)          (((const struct T_UINT16_READ *)(const void *)(add
  93:Drivers/CMSIS/Include/cmsis_gcc.h **** #endif
  94:Drivers/CMSIS/Include/cmsis_gcc.h **** #ifndef   __UNALIGNED_UINT32_WRITE
  95:Drivers/CMSIS/Include/cmsis_gcc.h ****   #pragma GCC diagnostic push
  96:Drivers/CMSIS/Include/cmsis_gcc.h ****   #pragma GCC diagnostic ignored "-Wpacked"
  97:Drivers/CMSIS/Include/cmsis_gcc.h ****   #pragma GCC diagnostic ignored "-Wattributes"
  98:Drivers/CMSIS/Include/cmsis_gcc.h ****   __PACKED_STRUCT T_UINT32_WRITE { uint32_t v; };
  99:Drivers/CMSIS/Include/cmsis_gcc.h ****   #pragma GCC diagnostic pop
 100:Drivers/CMSIS/Include/cmsis_gcc.h ****   #define __UNALIGNED_UINT32_WRITE(addr, val)    (void)((((struct T_UINT32_WRITE *)(void *)(addr))-
ARM GAS  /tmp/ccSbulXh.s 			page 9


 101:Drivers/CMSIS/Include/cmsis_gcc.h **** #endif
 102:Drivers/CMSIS/Include/cmsis_gcc.h **** #ifndef   __UNALIGNED_UINT32_READ
 103:Drivers/CMSIS/Include/cmsis_gcc.h ****   #pragma GCC diagnostic push
 104:Drivers/CMSIS/Include/cmsis_gcc.h ****   #pragma GCC diagnostic ignored "-Wpacked"
 105:Drivers/CMSIS/Include/cmsis_gcc.h ****   #pragma GCC diagnostic ignored "-Wattributes"
 106:Drivers/CMSIS/Include/cmsis_gcc.h ****   __PACKED_STRUCT T_UINT32_READ { uint32_t v; };
 107:Drivers/CMSIS/Include/cmsis_gcc.h ****   #pragma GCC diagnostic pop
 108:Drivers/CMSIS/Include/cmsis_gcc.h ****   #define __UNALIGNED_UINT32_READ(addr)          (((const struct T_UINT32_READ *)(const void *)(add
 109:Drivers/CMSIS/Include/cmsis_gcc.h **** #endif
 110:Drivers/CMSIS/Include/cmsis_gcc.h **** #ifndef   __ALIGNED
 111:Drivers/CMSIS/Include/cmsis_gcc.h ****   #define __ALIGNED(x)                           __attribute__((aligned(x)))
 112:Drivers/CMSIS/Include/cmsis_gcc.h **** #endif
 113:Drivers/CMSIS/Include/cmsis_gcc.h **** #ifndef   __RESTRICT
 114:Drivers/CMSIS/Include/cmsis_gcc.h ****   #define __RESTRICT                             __restrict
 115:Drivers/CMSIS/Include/cmsis_gcc.h **** #endif
 116:Drivers/CMSIS/Include/cmsis_gcc.h **** #ifndef   __COMPILER_BARRIER
 117:Drivers/CMSIS/Include/cmsis_gcc.h ****   #define __COMPILER_BARRIER()                   __ASM volatile("":::"memory")
 118:Drivers/CMSIS/Include/cmsis_gcc.h **** #endif
 119:Drivers/CMSIS/Include/cmsis_gcc.h **** 
 120:Drivers/CMSIS/Include/cmsis_gcc.h **** /* #########################  Startup and Lowlevel Init  ######################## */
 121:Drivers/CMSIS/Include/cmsis_gcc.h **** 
 122:Drivers/CMSIS/Include/cmsis_gcc.h **** #ifndef __PROGRAM_START
 123:Drivers/CMSIS/Include/cmsis_gcc.h **** 
 124:Drivers/CMSIS/Include/cmsis_gcc.h **** /**
 125:Drivers/CMSIS/Include/cmsis_gcc.h ****   \brief   Initializes data and bss sections
 126:Drivers/CMSIS/Include/cmsis_gcc.h ****   \details This default implementations initialized all data and additional bss
 127:Drivers/CMSIS/Include/cmsis_gcc.h ****            sections relying on .copy.table and .zero.table specified properly
 128:Drivers/CMSIS/Include/cmsis_gcc.h ****            in the used linker script.
 129:Drivers/CMSIS/Include/cmsis_gcc.h ****   
 130:Drivers/CMSIS/Include/cmsis_gcc.h ****  */
 131:Drivers/CMSIS/Include/cmsis_gcc.h **** __STATIC_FORCEINLINE __NO_RETURN void __cmsis_start(void)
 132:Drivers/CMSIS/Include/cmsis_gcc.h **** {
 133:Drivers/CMSIS/Include/cmsis_gcc.h ****   extern void _start(void) __NO_RETURN;
 134:Drivers/CMSIS/Include/cmsis_gcc.h ****   
 135:Drivers/CMSIS/Include/cmsis_gcc.h ****   typedef struct {
 136:Drivers/CMSIS/Include/cmsis_gcc.h ****     uint32_t const* src;
 137:Drivers/CMSIS/Include/cmsis_gcc.h ****     uint32_t* dest;
 138:Drivers/CMSIS/Include/cmsis_gcc.h ****     uint32_t  wlen;
 139:Drivers/CMSIS/Include/cmsis_gcc.h ****   } __copy_table_t;
 140:Drivers/CMSIS/Include/cmsis_gcc.h ****   
 141:Drivers/CMSIS/Include/cmsis_gcc.h ****   typedef struct {
 142:Drivers/CMSIS/Include/cmsis_gcc.h ****     uint32_t* dest;
 143:Drivers/CMSIS/Include/cmsis_gcc.h ****     uint32_t  wlen;
 144:Drivers/CMSIS/Include/cmsis_gcc.h ****   } __zero_table_t;
 145:Drivers/CMSIS/Include/cmsis_gcc.h ****   
 146:Drivers/CMSIS/Include/cmsis_gcc.h ****   extern const __copy_table_t __copy_table_start__;
 147:Drivers/CMSIS/Include/cmsis_gcc.h ****   extern const __copy_table_t __copy_table_end__;
 148:Drivers/CMSIS/Include/cmsis_gcc.h ****   extern const __zero_table_t __zero_table_start__;
 149:Drivers/CMSIS/Include/cmsis_gcc.h ****   extern const __zero_table_t __zero_table_end__;
 150:Drivers/CMSIS/Include/cmsis_gcc.h **** 
 151:Drivers/CMSIS/Include/cmsis_gcc.h ****   for (__copy_table_t const* pTable = &__copy_table_start__; pTable < &__copy_table_end__; ++pTable
 152:Drivers/CMSIS/Include/cmsis_gcc.h ****     for(uint32_t i=0u; i<pTable->wlen; ++i) {
 153:Drivers/CMSIS/Include/cmsis_gcc.h ****       pTable->dest[i] = pTable->src[i];
 154:Drivers/CMSIS/Include/cmsis_gcc.h ****     }
 155:Drivers/CMSIS/Include/cmsis_gcc.h ****   }
 156:Drivers/CMSIS/Include/cmsis_gcc.h ****  
 157:Drivers/CMSIS/Include/cmsis_gcc.h ****   for (__zero_table_t const* pTable = &__zero_table_start__; pTable < &__zero_table_end__; ++pTable
ARM GAS  /tmp/ccSbulXh.s 			page 10


 158:Drivers/CMSIS/Include/cmsis_gcc.h ****     for(uint32_t i=0u; i<pTable->wlen; ++i) {
 159:Drivers/CMSIS/Include/cmsis_gcc.h ****       pTable->dest[i] = 0u;
 160:Drivers/CMSIS/Include/cmsis_gcc.h ****     }
 161:Drivers/CMSIS/Include/cmsis_gcc.h ****   }
 162:Drivers/CMSIS/Include/cmsis_gcc.h ****  
 163:Drivers/CMSIS/Include/cmsis_gcc.h ****   _start();
 164:Drivers/CMSIS/Include/cmsis_gcc.h **** }
 165:Drivers/CMSIS/Include/cmsis_gcc.h ****   
 166:Drivers/CMSIS/Include/cmsis_gcc.h **** #define __PROGRAM_START           __cmsis_start
 167:Drivers/CMSIS/Include/cmsis_gcc.h **** #endif
 168:Drivers/CMSIS/Include/cmsis_gcc.h **** 
 169:Drivers/CMSIS/Include/cmsis_gcc.h **** #ifndef __INITIAL_SP
 170:Drivers/CMSIS/Include/cmsis_gcc.h **** #define __INITIAL_SP              __StackTop
 171:Drivers/CMSIS/Include/cmsis_gcc.h **** #endif
 172:Drivers/CMSIS/Include/cmsis_gcc.h **** 
 173:Drivers/CMSIS/Include/cmsis_gcc.h **** #ifndef __STACK_LIMIT
 174:Drivers/CMSIS/Include/cmsis_gcc.h **** #define __STACK_LIMIT             __StackLimit
 175:Drivers/CMSIS/Include/cmsis_gcc.h **** #endif
 176:Drivers/CMSIS/Include/cmsis_gcc.h **** 
 177:Drivers/CMSIS/Include/cmsis_gcc.h **** #ifndef __VECTOR_TABLE
 178:Drivers/CMSIS/Include/cmsis_gcc.h **** #define __VECTOR_TABLE            __Vectors
 179:Drivers/CMSIS/Include/cmsis_gcc.h **** #endif
 180:Drivers/CMSIS/Include/cmsis_gcc.h **** 
 181:Drivers/CMSIS/Include/cmsis_gcc.h **** #ifndef __VECTOR_TABLE_ATTRIBUTE
 182:Drivers/CMSIS/Include/cmsis_gcc.h **** #define __VECTOR_TABLE_ATTRIBUTE  __attribute((used, section(".vectors")))
 183:Drivers/CMSIS/Include/cmsis_gcc.h **** #endif
 184:Drivers/CMSIS/Include/cmsis_gcc.h **** 
 185:Drivers/CMSIS/Include/cmsis_gcc.h **** /* ###########################  Core Function Access  ########################### */
 186:Drivers/CMSIS/Include/cmsis_gcc.h **** /** \ingroup  CMSIS_Core_FunctionInterface
 187:Drivers/CMSIS/Include/cmsis_gcc.h ****     \defgroup CMSIS_Core_RegAccFunctions CMSIS Core Register Access Functions
 188:Drivers/CMSIS/Include/cmsis_gcc.h ****   @{
 189:Drivers/CMSIS/Include/cmsis_gcc.h ****  */
 190:Drivers/CMSIS/Include/cmsis_gcc.h **** 
 191:Drivers/CMSIS/Include/cmsis_gcc.h **** /**
 192:Drivers/CMSIS/Include/cmsis_gcc.h ****   \brief   Enable IRQ Interrupts
 193:Drivers/CMSIS/Include/cmsis_gcc.h ****   \details Enables IRQ interrupts by clearing the I-bit in the CPSR.
 194:Drivers/CMSIS/Include/cmsis_gcc.h ****            Can only be executed in Privileged modes.
 195:Drivers/CMSIS/Include/cmsis_gcc.h ****  */
 196:Drivers/CMSIS/Include/cmsis_gcc.h **** __STATIC_FORCEINLINE void __enable_irq(void)
 197:Drivers/CMSIS/Include/cmsis_gcc.h **** {
 198:Drivers/CMSIS/Include/cmsis_gcc.h ****   __ASM volatile ("cpsie i" : : : "memory");
 199:Drivers/CMSIS/Include/cmsis_gcc.h **** }
 200:Drivers/CMSIS/Include/cmsis_gcc.h **** 
 201:Drivers/CMSIS/Include/cmsis_gcc.h **** 
 202:Drivers/CMSIS/Include/cmsis_gcc.h **** /**
 203:Drivers/CMSIS/Include/cmsis_gcc.h ****   \brief   Disable IRQ Interrupts
 204:Drivers/CMSIS/Include/cmsis_gcc.h ****   \details Disables IRQ interrupts by setting the I-bit in the CPSR.
 205:Drivers/CMSIS/Include/cmsis_gcc.h ****            Can only be executed in Privileged modes.
 206:Drivers/CMSIS/Include/cmsis_gcc.h ****  */
 207:Drivers/CMSIS/Include/cmsis_gcc.h **** __STATIC_FORCEINLINE void __disable_irq(void)
 117              		.loc 2 207 27 view .LVU15
 118              	.LBB5:
 208:Drivers/CMSIS/Include/cmsis_gcc.h **** {
 209:Drivers/CMSIS/Include/cmsis_gcc.h ****   __ASM volatile ("cpsid i" : : : "memory");
 119              		.loc 2 209 3 view .LVU16
 120              		.syntax unified
 121              	@ 209 "Drivers/CMSIS/Include/cmsis_gcc.h" 1
ARM GAS  /tmp/ccSbulXh.s 			page 11


 122 0000 72B6     		cpsid i
 123              	@ 0 "" 2
 124              		.thumb
 125              		.syntax unified
 126              	.L11:
 127              	.LBE5:
 128              	.LBE4:
 244:Core/Src/main.c ****   while (1)
 129              		.loc 1 244 3 view .LVU17
 245:Core/Src/main.c ****   {
 246:Core/Src/main.c ****   }
 130              		.loc 1 246 3 view .LVU18
 244:Core/Src/main.c ****   while (1)
 131              		.loc 1 244 9 view .LVU19
 132 0002 FEE7     		b	.L11
 133              		.cfi_endproc
 134              	.LFE236:
 136              		.section	.text.SystemClock_Config,"ax",%progbits
 137              		.align	1
 138              		.global	SystemClock_Config
 139              		.syntax unified
 140              		.thumb
 141              		.thumb_func
 143              	SystemClock_Config:
 144              	.LFB233:
 152:Core/Src/main.c ****   RCC_OscInitTypeDef RCC_OscInitStruct = {0};
 145              		.loc 1 152 1 view -0
 146              		.cfi_startproc
 147              		@ args = 0, pretend = 0, frame = 88
 148              		@ frame_needed = 0, uses_anonymous_args = 0
 149 0000 00B5     		push	{lr}
 150              	.LCFI2:
 151              		.cfi_def_cfa_offset 4
 152              		.cfi_offset 14, -4
 153 0002 97B0     		sub	sp, sp, #92
 154              	.LCFI3:
 155              		.cfi_def_cfa_offset 96
 153:Core/Src/main.c ****   RCC_ClkInitTypeDef RCC_ClkInitStruct = {0};
 156              		.loc 1 153 3 view .LVU21
 153:Core/Src/main.c ****   RCC_ClkInitTypeDef RCC_ClkInitStruct = {0};
 157              		.loc 1 153 22 is_stmt 0 view .LVU22
 158 0004 4422     		movs	r2, #68
 159 0006 0021     		movs	r1, #0
 160 0008 05A8     		add	r0, sp, #20
 161 000a FFF7FEFF 		bl	memset
 162              	.LVL7:
 154:Core/Src/main.c **** 
 163              		.loc 1 154 3 is_stmt 1 view .LVU23
 154:Core/Src/main.c **** 
 164              		.loc 1 154 22 is_stmt 0 view .LVU24
 165 000e 0023     		movs	r3, #0
 166 0010 0093     		str	r3, [sp]
 167 0012 0193     		str	r3, [sp, #4]
 168 0014 0293     		str	r3, [sp, #8]
 169 0016 0393     		str	r3, [sp, #12]
 170 0018 0493     		str	r3, [sp, #16]
 158:Core/Src/main.c ****   {
ARM GAS  /tmp/ccSbulXh.s 			page 12


 171              		.loc 1 158 3 is_stmt 1 view .LVU25
 158:Core/Src/main.c ****   {
 172              		.loc 1 158 7 is_stmt 0 view .LVU26
 173 001a 4FF40070 		mov	r0, #512
 174 001e FFF7FEFF 		bl	HAL_PWREx_ControlVoltageScaling
 175              	.LVL8:
 158:Core/Src/main.c ****   {
 176              		.loc 1 158 6 discriminator 1 view .LVU27
 177 0022 C0B9     		cbnz	r0, .L17
 166:Core/Src/main.c ****   RCC_OscInitStruct.MSIState = RCC_MSI_ON;
 178              		.loc 1 166 3 is_stmt 1 view .LVU28
 166:Core/Src/main.c ****   RCC_OscInitStruct.MSIState = RCC_MSI_ON;
 179              		.loc 1 166 36 is_stmt 0 view .LVU29
 180 0024 1023     		movs	r3, #16
 181 0026 0593     		str	r3, [sp, #20]
 167:Core/Src/main.c ****   RCC_OscInitStruct.MSICalibrationValue = 0;
 182              		.loc 1 167 3 is_stmt 1 view .LVU30
 167:Core/Src/main.c ****   RCC_OscInitStruct.MSICalibrationValue = 0;
 183              		.loc 1 167 30 is_stmt 0 view .LVU31
 184 0028 0123     		movs	r3, #1
 185 002a 0B93     		str	r3, [sp, #44]
 168:Core/Src/main.c ****   RCC_OscInitStruct.MSIClockRange = RCC_MSIRANGE_6;
 186              		.loc 1 168 3 is_stmt 1 view .LVU32
 168:Core/Src/main.c ****   RCC_OscInitStruct.MSIClockRange = RCC_MSIRANGE_6;
 187              		.loc 1 168 41 is_stmt 0 view .LVU33
 188 002c 0C90     		str	r0, [sp, #48]
 169:Core/Src/main.c ****   RCC_OscInitStruct.PLL.PLLState = RCC_PLL_NONE;
 189              		.loc 1 169 3 is_stmt 1 view .LVU34
 169:Core/Src/main.c ****   RCC_OscInitStruct.PLL.PLLState = RCC_PLL_NONE;
 190              		.loc 1 169 35 is_stmt 0 view .LVU35
 191 002e 6022     		movs	r2, #96
 192 0030 0D92     		str	r2, [sp, #52]
 170:Core/Src/main.c ****   if (HAL_RCC_OscConfig(&RCC_OscInitStruct) != HAL_OK)
 193              		.loc 1 170 3 is_stmt 1 view .LVU36
 170:Core/Src/main.c ****   if (HAL_RCC_OscConfig(&RCC_OscInitStruct) != HAL_OK)
 194              		.loc 1 170 34 is_stmt 0 view .LVU37
 195 0032 0F90     		str	r0, [sp, #60]
 171:Core/Src/main.c ****   {
 196              		.loc 1 171 3 is_stmt 1 view .LVU38
 171:Core/Src/main.c ****   {
 197              		.loc 1 171 7 is_stmt 0 view .LVU39
 198 0034 05A8     		add	r0, sp, #20
 199 0036 FFF7FEFF 		bl	HAL_RCC_OscConfig
 200              	.LVL9:
 171:Core/Src/main.c ****   {
 201              		.loc 1 171 6 discriminator 1 view .LVU40
 202 003a 70B9     		cbnz	r0, .L18
 178:Core/Src/main.c ****                               |RCC_CLOCKTYPE_PCLK1|RCC_CLOCKTYPE_PCLK2;
 203              		.loc 1 178 3 is_stmt 1 view .LVU41
 178:Core/Src/main.c ****                               |RCC_CLOCKTYPE_PCLK1|RCC_CLOCKTYPE_PCLK2;
 204              		.loc 1 178 31 is_stmt 0 view .LVU42
 205 003c 0F23     		movs	r3, #15
 206 003e 0093     		str	r3, [sp]
 180:Core/Src/main.c ****   RCC_ClkInitStruct.AHBCLKDivider = RCC_SYSCLK_DIV1;
 207              		.loc 1 180 3 is_stmt 1 view .LVU43
 180:Core/Src/main.c ****   RCC_ClkInitStruct.AHBCLKDivider = RCC_SYSCLK_DIV1;
 208              		.loc 1 180 34 is_stmt 0 view .LVU44
ARM GAS  /tmp/ccSbulXh.s 			page 13


 209 0040 0146     		mov	r1, r0
 210 0042 0190     		str	r0, [sp, #4]
 181:Core/Src/main.c ****   RCC_ClkInitStruct.APB1CLKDivider = RCC_HCLK_DIV1;
 211              		.loc 1 181 3 is_stmt 1 view .LVU45
 181:Core/Src/main.c ****   RCC_ClkInitStruct.APB1CLKDivider = RCC_HCLK_DIV1;
 212              		.loc 1 181 35 is_stmt 0 view .LVU46
 213 0044 0290     		str	r0, [sp, #8]
 182:Core/Src/main.c ****   RCC_ClkInitStruct.APB2CLKDivider = RCC_HCLK_DIV1;
 214              		.loc 1 182 3 is_stmt 1 view .LVU47
 182:Core/Src/main.c ****   RCC_ClkInitStruct.APB2CLKDivider = RCC_HCLK_DIV1;
 215              		.loc 1 182 36 is_stmt 0 view .LVU48
 216 0046 0390     		str	r0, [sp, #12]
 183:Core/Src/main.c **** 
 217              		.loc 1 183 3 is_stmt 1 view .LVU49
 183:Core/Src/main.c **** 
 218              		.loc 1 183 36 is_stmt 0 view .LVU50
 219 0048 0490     		str	r0, [sp, #16]
 185:Core/Src/main.c ****   {
 220              		.loc 1 185 3 is_stmt 1 view .LVU51
 185:Core/Src/main.c ****   {
 221              		.loc 1 185 7 is_stmt 0 view .LVU52
 222 004a 6846     		mov	r0, sp
 223 004c FFF7FEFF 		bl	HAL_RCC_ClockConfig
 224              	.LVL10:
 185:Core/Src/main.c ****   {
 225              		.loc 1 185 6 discriminator 1 view .LVU53
 226 0050 28B9     		cbnz	r0, .L19
 189:Core/Src/main.c **** 
 227              		.loc 1 189 1 view .LVU54
 228 0052 17B0     		add	sp, sp, #92
 229              	.LCFI4:
 230              		.cfi_remember_state
 231              		.cfi_def_cfa_offset 4
 232              		@ sp needed
 233 0054 00BD     		pop	{pc}
 234              	.L17:
 235              	.LCFI5:
 236              		.cfi_restore_state
 160:Core/Src/main.c ****   }
 237              		.loc 1 160 5 is_stmt 1 view .LVU55
 238 0056 FFF7FEFF 		bl	Error_Handler
 239              	.LVL11:
 240              	.L18:
 173:Core/Src/main.c ****   }
 241              		.loc 1 173 5 view .LVU56
 242 005a FFF7FEFF 		bl	Error_Handler
 243              	.LVL12:
 244              	.L19:
 187:Core/Src/main.c ****   }
 245              		.loc 1 187 5 view .LVU57
 246 005e FFF7FEFF 		bl	Error_Handler
 247              	.LVL13:
 248              		.cfi_endproc
 249              	.LFE233:
 251              		.section	.text.main,"ax",%progbits
 252              		.align	1
 253              		.global	main
ARM GAS  /tmp/ccSbulXh.s 			page 14


 254              		.syntax unified
 255              		.thumb
 256              		.thumb_func
 258              	main:
 259              	.LFB232:
  73:Core/Src/main.c **** 
 260              		.loc 1 73 1 view -0
 261              		.cfi_startproc
 262              		@ Volatile: function does not return.
 263              		@ args = 0, pretend = 0, frame = 0
 264              		@ frame_needed = 0, uses_anonymous_args = 0
 265 0000 08B5     		push	{r3, lr}
 266              	.LCFI6:
 267              		.cfi_def_cfa_offset 8
 268              		.cfi_offset 3, -8
 269              		.cfi_offset 14, -4
  82:Core/Src/main.c **** 
 270              		.loc 1 82 3 view .LVU59
 271 0002 FFF7FEFF 		bl	HAL_Init
 272              	.LVL14:
  89:Core/Src/main.c **** 
 273              		.loc 1 89 3 view .LVU60
 274 0006 FFF7FEFF 		bl	SystemClock_Config
 275              	.LVL15:
 101:Core/Src/main.c **** 
 276              		.loc 1 101 3 view .LVU61
 277 000a FFF7FEFF 		bl	osKernelInitialize
 278              	.LVL16:
 121:Core/Src/main.c **** 
 279              		.loc 1 121 3 view .LVU62
 121:Core/Src/main.c **** 
 280              		.loc 1 121 23 is_stmt 0 view .LVU63
 281 000e 054A     		ldr	r2, .L23
 282 0010 0021     		movs	r1, #0
 283 0012 0548     		ldr	r0, .L23+4
 284 0014 FFF7FEFF 		bl	osThreadNew
 285              	.LVL17:
 121:Core/Src/main.c **** 
 286              		.loc 1 121 21 discriminator 1 view .LVU64
 287 0018 044B     		ldr	r3, .L23+8
 288 001a 1860     		str	r0, [r3]
 132:Core/Src/main.c **** 
 289              		.loc 1 132 3 is_stmt 1 view .LVU65
 290 001c FFF7FEFF 		bl	osKernelStart
 291              	.LVL18:
 292              	.L21:
 138:Core/Src/main.c ****   {
 293              		.loc 1 138 3 view .LVU66
 143:Core/Src/main.c ****   /* USER CODE END 3 */
 294              		.loc 1 143 3 view .LVU67
 138:Core/Src/main.c ****   {
 295              		.loc 1 138 9 view .LVU68
 296 0020 FEE7     		b	.L21
 297              	.L24:
 298 0022 00BF     		.align	2
 299              	.L23:
 300 0024 00000000 		.word	defaultTask_attributes
ARM GAS  /tmp/ccSbulXh.s 			page 15


 301 0028 00000000 		.word	StartDefaultTask
 302 002c 00000000 		.word	defaultTaskHandle
 303              		.cfi_endproc
 304              	.LFE232:
 306              		.global	defaultTask_attributes
 307              		.section	.rodata.str1.4,"aMS",%progbits,1
 308              		.align	2
 309              	.LC0:
 310 0000 64656661 		.ascii	"defaultTask\000"
 310      756C7454 
 310      61736B00 
 311              		.section	.rodata.defaultTask_attributes,"a"
 312              		.align	2
 315              	defaultTask_attributes:
 316 0000 00000000 		.word	.LC0
 317 0004 00000000 		.space	16
 317      00000000 
 317      00000000 
 317      00000000 
 318 0014 00020000 		.word	512
 319 0018 18000000 		.word	24
 320 001c 00000000 		.space	8
 320      00000000 
 321              		.global	defaultTaskHandle
 322              		.section	.bss.defaultTaskHandle,"aw",%nobits
 323              		.align	2
 326              	defaultTaskHandle:
 327 0000 00000000 		.space	4
 328              		.text
 329              	.Letext0:
 330              		.file 3 "/usr/arm-none-eabi/include/machine/_default_types.h"
 331              		.file 4 "/usr/arm-none-eabi/include/sys/_stdint.h"
 332              		.file 5 "Drivers/CMSIS/Device/ST/STM32L4xx/Include/stm32l476xx.h"
 333              		.file 6 "Drivers/STM32L4xx_HAL_Driver/Inc/stm32l4xx_hal_def.h"
 334              		.file 7 "Drivers/STM32L4xx_HAL_Driver/Inc/stm32l4xx_hal_rcc.h"
 335              		.file 8 "Drivers/STM32L4xx_HAL_Driver/Inc/stm32l4xx_hal_dma.h"
 336              		.file 9 "Drivers/STM32L4xx_HAL_Driver/Inc/stm32l4xx_hal_tim.h"
 337              		.file 10 "Middlewares/Third_Party/FreeRTOS/Source/CMSIS_RTOS_V2/cmsis_os2.h"
 338              		.file 11 "Drivers/STM32L4xx_HAL_Driver/Inc/stm32l4xx_hal_pwr_ex.h"
 339              		.file 12 "Drivers/STM32L4xx_HAL_Driver/Inc/stm32l4xx_hal.h"
 340              		.file 13 "Drivers/STM32L4xx_HAL_Driver/Inc/stm32l4xx_ll_dma.h"
 341              		.file 14 "<built-in>"
ARM GAS  /tmp/ccSbulXh.s 			page 16

